target datalayout = "e-m:e-p270:32:32-p271:32:32-p272:64:64-i64:64-i128:128-f80:128-n8:16:32:64-S128"
target triple = "x86_64-pc-linux-gnu"

%struct.dt_datetime_t = type { i32, i32, i32, i32, i32, i32, i32 }

; Function Attrs: nounwind uwtable
define ptr @dt_datetime_exif_to_gdatetime(ptr noundef %0, ptr noundef %1) #0 {
  %3 = alloca ptr, align 8
  %4 = alloca ptr, align 8
  %5 = alloca ptr, align 8
  %6 = alloca %struct.dt_datetime_t, align 4
  %7 = alloca ptr, align 8
  %8 = alloca ptr, align 8
  %9 = alloca i32, align 4
  store ptr %0, ptr %4, align 8, !tbaa !60
  store ptr %1, ptr %5, align 8, !tbaa !83
  call void @llvm.lifetime.start.p0(i64 28, ptr %6) #7
  %10 = load ptr, ptr %4, align 8, !tbaa !60
  %11 = call i32 @dt_datetime_exif_to_numbers(ptr noundef %6, ptr noundef %10)
  %12 = icmp ne i32 %11, 0
  br i1 %12, label %13, label %48

13:                                               ; preds = %2
  call void @llvm.lifetime.start.p0(i64 8, ptr %7) #7
  %14 = load ptr, ptr %5, align 8, !tbaa !83
  %15 = getelementptr inbounds nuw %struct.dt_datetime_t, ptr %6, i32 0, i32 0
  %16 = load i32, ptr %15, align 4, !tbaa !52
  %17 = getelementptr inbounds nuw %struct.dt_datetime_t, ptr %6, i32 0, i32 1
  %18 = load i32, ptr %17, align 4, !tbaa !54
  %19 = getelementptr inbounds nuw %struct.dt_datetime_t, ptr %6, i32 0, i32 2
  %20 = load i32, ptr %19, align 4, !tbaa !55
  %21 = getelementptr inbounds nuw %struct.dt_datetime_t, ptr %6, i32 0, i32 3
  %22 = load i32, ptr %21, align 4, !tbaa !56
  %23 = getelementptr inbounds nuw %struct.dt_datetime_t, ptr %6, i32 0, i32 4
  %24 = load i32, ptr %23, align 4, !tbaa !57
  %25 = getelementptr inbounds nuw %struct.dt_datetime_t, ptr %6, i32 0, i32 5
  %26 = load i32, ptr %25, align 4, !tbaa !58
  %27 = sitofp i32 %26 to double
  %28 = call ptr @g_date_time_new(ptr noundef %14, i32 noundef %16, i32 noundef %18, i32 noundef %20, i32 noundef %22, i32 noundef %24, double noundef %27)
  store ptr %28, ptr %7, align 8, !tbaa !51
  %29 = load ptr, ptr %7, align 8, !tbaa !51
  %30 = icmp ne ptr %29, null
  br i1 %30, label %31, label %45

31:                                               ; preds = %13
  %32 = getelementptr inbounds nuw %struct.dt_datetime_t, ptr %6, i32 0, i32 6
  %33 = load i32, ptr %32, align 4, !tbaa !59
  %34 = icmp ne i32 %33, 0
  br i1 %34, label %35, label %44

35:                                               ; preds = %31
  call void @llvm.lifetime.start.p0(i64 8, ptr %8) #7
  %36 = load ptr, ptr %7, align 8, !tbaa !51
  %37 = getelementptr inbounds nuw %struct.dt_datetime_t, ptr %6, i32 0, i32 6
  %38 = load i32, ptr %37, align 4, !tbaa !59
  %39 = mul nsw i32 %38, 1000
  %40 = sext i32 %39 to i64
  %41 = call ptr @g_date_time_add(ptr noundef %36, i64 noundef %40)
  store ptr %41, ptr %8, align 8, !tbaa !51
  %42 = load ptr, ptr %7, align 8, !tbaa !51
  call void @g_date_time_unref(ptr noundef %42)
  %43 = load ptr, ptr %8, align 8, !tbaa !51
  store ptr %43, ptr %3, align 8
  store i32 1, ptr %9, align 4
  call void @llvm.lifetime.end.p0(i64 8, ptr %8) #7
  br label %47

44:                                               ; preds = %31
  br label %45

45:                                               ; preds = %44, %13
  %46 = load ptr, ptr %7, align 8, !tbaa !51
  store ptr %46, ptr %3, align 8
  store i32 1, ptr %9, align 4
  br label %47

47:                                               ; preds = %45, %35
  call void @llvm.lifetime.end.p0(i64 8, ptr %7) #7
  br label %49

48:                                               ; preds = %2
  store ptr null, ptr %3, align 8
  store i32 1, ptr %9, align 4
  br label %49

49:                                               ; preds = %48, %47
  call void @llvm.lifetime.end.p0(i64 28, ptr %6) #7
  %50 = load ptr, ptr %3, align 8
  ret ptr %50
}