; Function Attrs: nounwind uwtable
define ptr @dt_datetime_exif_to_gdatetime(ptr noundef %0, ptr noundef %1) local_unnamed_addr #0 {
  %3 = alloca %struct.dt_datetime_t, align 4
  call void @llvm.lifetime.start.p0(i64 28, ptr nonnull %3) #7
  %4 = call i32 @dt_datetime_exif_to_numbers(ptr noundef nonnull %3, ptr noundef %0)
  %.not = icmp eq i32 %4, 0
  br i1 %.not, label %27, label %5

5:                                                ; preds = %2
  %6 = load i32, ptr %3, align 4, !tbaa !49
  %7 = getelementptr inbounds nuw i8, ptr %3, i64 4
  %8 = load i32, ptr %7, align 4, !tbaa !51
  %9 = getelementptr inbounds nuw i8, ptr %3, i64 8
  %10 = load i32, ptr %9, align 4, !tbaa !52
  %11 = getelementptr inbounds nuw i8, ptr %3, i64 12
  %12 = load i32, ptr %11, align 4, !tbaa !53
  %13 = getelementptr inbounds nuw i8, ptr %3, i64 16
  %14 = load i32, ptr %13, align 4, !tbaa !54
  %15 = getelementptr inbounds nuw i8, ptr %3, i64 20
  %16 = load i32, ptr %15, align 4, !tbaa !55
  %17 = sitofp i32 %16 to double
  %18 = call ptr @g_date_time_new(ptr noundef %1, i32 noundef %6, i32 noundef %8, i32 noundef %10, i32 noundef %12, i32 noundef %14, double noundef %17) #7
  %19 = icmp ne ptr %18, null
  %20 = getelementptr inbounds nuw i8, ptr %3, i64 24
  %21 = load i32, ptr %20, align 4
  %22 = icmp ne i32 %21, 0
  %or.cond = select i1 %19, i1 %22, i1 false
  br i1 %or.cond, label %23, label %27

23:                                               ; preds = %5
  %24 = mul nsw i32 %21, 1000
  %25 = sext i32 %24 to i64
  %26 = call ptr @g_date_time_add(ptr noundef nonnull %18, i64 noundef %25) #7
  call void @g_date_time_unref(ptr noundef nonnull %18) #7
  br label %27

27:                                               ; preds = %2, %23, %5
  %.1 = phi ptr [ %26, %23 ], [ %18, %5 ], [ null, %2 ]
  call void @llvm.lifetime.end.p0(i64 28, ptr nonnull %3) #7
  ret ptr %.1
}